target datalayout = "e-m:e-p270:32:32-p271:32:32-p272:64:64-i64:64-i128:128-f80:128-n8:16:32:64-S128"
target triple = "x86_64-pc-linux-gnu"

%"class.icu_77::number::impl::Grouper" = type { i16, i16, i16, i32 }

; Function Attrs: mustprogress nounwind uwtable
define linkonce_odr void @_ZN6icu_776number4impl7GrouperC2Esss23UNumberGroupingStrategy(ptr noundef nonnull align 4 dereferenceable(12) %0, i16 noundef signext %1, i16 noundef signext %2, i16 noundef signext %3, i32 noundef %4) unnamed_addr #1 comdat align 2 {
  %6 = alloca ptr, align 8
  %7 = alloca i16, align 2
  %8 = alloca i16, align 2
  %9 = alloca i16, align 2
  %10 = alloca i32, align 4
  store ptr %0, ptr %6, align 8, !tbaa !7
  store i16 %1, ptr %7, align 2, !tbaa !10
  store i16 %2, ptr %8, align 2, !tbaa !10
  store i16 %3, ptr %9, align 2, !tbaa !10
  store i32 %4, ptr %10, align 4, !tbaa !3
  %11 = load ptr, ptr %6, align 8
  %12 = getelementptr inbounds nuw %"class.icu_77::number::impl::Grouper", ptr %11, i32 0, i32 0
  %13 = load i16, ptr %7, align 2, !tbaa !10
  store i16 %13, ptr %12, align 4, !tbaa !12
  %14 = getelementptr inbounds nuw %"class.icu_77::number::impl::Grouper", ptr %11, i32 0, i32 1
  %15 = load i16, ptr %8, align 2, !tbaa !10
  store i16 %15, ptr %14, align 2, !tbaa !14
  %16 = getelementptr inbounds nuw %"class.icu_77::number::impl::Grouper", ptr %11, i32 0, i32 2
  %17 = load i16, ptr %9, align 2, !tbaa !10
  store i16 %17, ptr %16, align 4, !tbaa !15
  %18 = getelementptr inbounds nuw %"class.icu_77::number::impl::Grouper", ptr %11, i32 0, i32 3
  %19 = load i32, ptr %10, align 4, !tbaa !3
  store i32 %19, ptr %18, align 4, !tbaa !16
  ret void
}

; Function Attrs: mustprogress uwtable
define { i64, i32 } @_ZN6icu_776number4impl7Grouper11forStrategyE23UNumberGroupingStrategy(i32 noundef %0) #0 align 2 {
  %2 = alloca %"class.icu_77::number::impl::Grouper", align 4
  %3 = alloca i32, align 4
  %4 = alloca { i64, i32 }, align 8
  store i32 %0, ptr %3, align 4, !tbaa !3
  %5 = load i32, ptr %3, align 4, !tbaa !3
  switch i32 %5, label %16 [
    i32 0, label %6
    i32 2, label %8
    i32 1, label %10
    i32 3, label %12
    i32 4, label %14
  ]

6:                                                ; preds = %1
  %7 = load i32, ptr %3, align 4, !tbaa !3
  call void @_ZN6icu_776number4impl7GrouperC2Esss23UNumberGroupingStrategy(ptr noundef nonnull align 4 dereferenceable(12) %2, i16 noundef signext -1, i16 noundef signext -1, i16 noundef signext -2, i32 noundef %7)
  br label %17

8:                                                ; preds = %1
  %9 = load i32, ptr %3, align 4, !tbaa !3
  call void @_ZN6icu_776number4impl7GrouperC2Esss23UNumberGroupingStrategy(ptr noundef nonnull align 4 dereferenceable(12) %2, i16 noundef signext -2, i16 noundef signext -2, i16 noundef signext -2, i32 noundef %9)
  br label %17

10:                                               ; preds = %1
  %11 = load i32, ptr %3, align 4, !tbaa !3
  call void @_ZN6icu_776number4impl7GrouperC2Esss23UNumberGroupingStrategy(ptr noundef nonnull align 4 dereferenceable(12) %2, i16 noundef signext -2, i16 noundef signext -2, i16 noundef signext -3, i32 noundef %11)
  br label %17

12:                                               ; preds = %1
  %13 = load i32, ptr %3, align 4, !tbaa !3
  call void @_ZN6icu_776number4impl7GrouperC2Esss23UNumberGroupingStrategy(ptr noundef nonnull align 4 dereferenceable(12) %2, i16 noundef signext -4, i16 noundef signext -4, i16 noundef signext 1, i32 noundef %13)
  br label %17

14:                                               ; preds = %1
  %15 = load i32, ptr %3, align 4, !tbaa !3
  call void @_ZN6icu_776number4impl7GrouperC2Esss23UNumberGroupingStrategy(ptr noundef nonnull align 4 dereferenceable(12) %2, i16 noundef signext 3, i16 noundef signext 3, i16 noundef signext 1, i32 noundef %15)
  br label %17

16:                                               ; preds = %1
  call void @abort() #8
  unreachable

17:                                               ; preds = %14, %12, %10, %8, %6
  call void @llvm.memcpy.p0.p0.i64(ptr align 8 %4, ptr align 4 %2, i64 12, i1 false)
  %18 = load { i64, i32 }, ptr %4, align 8
  ret { i64, i32 } %18
}