; Function Attrs: mustprogress nofree nounwind uwtable
define { i64, i32 } @_ZN6icu_776number4impl7Grouper11forStrategyE23UNumberGroupingStrategy(i32 noundef %0) local_unnamed_addr #0 align 2 {
  %2 = icmp ult i32 %0, 5
  br i1 %2, label %switch.lookup, label %3

3:                                                ; preds = %1
  tail call void @abort() #9
  unreachable

switch.lookup:                                    ; preds = %1
  %4 = zext nneg i32 %0 to i64
  %switch.gep = getelementptr inbounds nuw [5 x i64], ptr @switch.table._ZN6icu_776number4impl7Grouper11forStrategyE23UNumberGroupingStrategy, i64 0, i64 %4
  %switch.load = load i64, ptr %switch.gep, align 8
  %5 = zext nneg i32 %0 to i64
  %switch.gep11 = getelementptr inbounds nuw [5 x i64], ptr @switch.table._ZN6icu_776number4impl7Grouper11forStrategyE23UNumberGroupingStrategy.2, i64 0, i64 %5
  %switch.load12 = load i64, ptr %switch.gep11, align 8
  %.sroa.6.0.insert.shift = shl nuw nsw i64 %switch.load12, 16
  %.sroa.6.0.insert.insert = or disjoint i64 %.sroa.6.0.insert.shift, %switch.load
  %.sroa.0.0.insert.insert = or disjoint i64 %.sroa.6.0.insert.insert, %switch.load12
  %.fca.0.insert = insertvalue { i64, i32 } poison, i64 %.sroa.0.0.insert.insert, 0
  %.fca.1.insert = insertvalue { i64, i32 } %.fca.0.insert, i32 %0, 1
  ret { i64, i32 } %.fca.1.insert
}